; Function Attrs: nofree norecurse nosync nounwind memory(readwrite, inaccessiblemem: none) uwtable
define internal void @fade_samples_s16p(ptr noundef readonly captures(none) %0, ptr noundef readonly captures(none) %1, i32 noundef %2, i32 noundef %3, i32 noundef %4, i64 noundef %5, i64 noundef %6, i32 noundef %7, double noundef %8, double noundef %9) #6 {
  %11 = icmp sgt i32 %2, 0
  %12 = icmp sgt i32 %3, 0
  %or.cond = and i1 %11, %12
  br i1 %or.cond, label %.lr.ph.us.preheader, label %._crit_edge26

.lr.ph.us.preheader:                              ; preds = %10
  %13 = sext i32 %4 to i64
  %wide.trip.count32 = zext nneg i32 %2 to i64
  %wide.trip.count = zext nneg i32 %3 to i64
  br label %.lr.ph.us

.lr.ph.us:                                        ; preds = %.lr.ph.us.preheader, %._crit_edge.us
  %indvars.iv29 = phi i64 [ 0, %.lr.ph.us.preheader ], [ %indvars.iv.next30, %._crit_edge.us ]
  %14 = mul nsw i64 %indvars.iv29, %13
  %15 = add nsw i64 %5, %14
  %16 = tail call nsz fastcc double @fade_gain(i32 noundef %7, i64 noundef %15, i64 noundef %6, double noundef %8, double noundef %9)
  br label %17

17:                                               ; preds = %.lr.ph.us, %17
  %indvars.iv = phi i64 [ 0, %.lr.ph.us ], [ %indvars.iv.next, %17 ]
  %18 = getelementptr inbounds nuw ptr, ptr %0, i64 %indvars.iv
  %19 = load ptr, ptr %18, align 8, !tbaa !71
  %20 = getelementptr inbounds nuw ptr, ptr %1, i64 %indvars.iv
  %21 = load ptr, ptr %20, align 8, !tbaa !71
  %22 = getelementptr inbounds nuw i16, ptr %21, i64 %indvars.iv29
  %23 = load i16, ptr %22, align 2, !tbaa !91
  %24 = sitofp i16 %23 to double
  %25 = fmul nsz double %16, %24
  %26 = fptosi double %25 to i16
  %27 = getelementptr inbounds nuw i16, ptr %19, i64 %indvars.iv29
  store i16 %26, ptr %27, align 2, !tbaa !91
  %indvars.iv.next = add nuw nsw i64 %indvars.iv, 1
  %exitcond.not = icmp eq i64 %indvars.iv.next, %wide.trip.count
  br i1 %exitcond.not, label %._crit_edge.us, label %17, !llvm.loop !97

._crit_edge.us:                                   ; preds = %17
  %indvars.iv.next30 = add nuw nsw i64 %indvars.iv29, 1
  %exitcond33.not = icmp eq i64 %indvars.iv.next30, %wide.trip.count32
  br i1 %exitcond33.not, label %._crit_edge26, label %.lr.ph.us, !llvm.loop !98

._crit_edge26:                                    ; preds = %._crit_edge.us, %10
  ret void
}